target datalayout = "e-m:e-p270:32:32-p271:32:32-p272:64:64-i64:64-i128:128-f80:128-n8:16:32:64-S128"
target triple = "x86_64-pc-linux-gnu"

%struct._GtkTreeIter = type { i32, ptr, ptr, ptr }

@.str.74 = private unnamed_addr constant [35 x i8] c"plugins/darkroom/quick_preset_list\00", align 1

; Function Attrs: nounwind uwtable
define internal void @_menuitem_manage_quick_presets_toggle(ptr noundef %0, ptr noundef %1, ptr noundef %2) #0 {
  %4 = alloca ptr, align 8
  %5 = alloca ptr, align 8
  %6 = alloca ptr, align 8
  %7 = alloca %struct._GtkTreeIter, align 8
  %8 = alloca ptr, align 8
  %9 = alloca ptr, align 8
  store ptr %0, ptr %4, align 8, !tbaa !240
  store ptr %1, ptr %5, align 8, !tbaa !11
  store ptr %2, ptr %6, align 8, !tbaa !17
  call void @llvm.lifetime.start.p0(i64 32, ptr %7) #11
  call void @llvm.lifetime.start.p0(i64 8, ptr %8) #11
  %10 = load ptr, ptr %6, align 8, !tbaa !17
  %11 = call ptr @gtk_tree_view_get_model(ptr noundef %10)
  store ptr %11, ptr %8, align 8, !tbaa !204
  %12 = load ptr, ptr %8, align 8, !tbaa !204
  %13 = load ptr, ptr %5, align 8, !tbaa !11
  %14 = call i32 @gtk_tree_model_get_iter_from_string(ptr noundef %12, ptr noundef %7, ptr noundef %13)
  %15 = icmp ne i32 %14, 0
  br i1 %15, label %16, label %29

16:                                               ; preds = %3
  %17 = load ptr, ptr %4, align 8, !tbaa !240
  %18 = call i32 @gtk_cell_renderer_toggle_get_active(ptr noundef %17)
  %19 = icmp ne i32 %18, 0
  br i1 %19, label %20, label %24

20:                                               ; preds = %16
  %21 = load ptr, ptr %8, align 8, !tbaa !204
  %22 = call i64 @gtk_tree_store_get_type() #14
  %23 = call ptr @g_type_check_instance_cast(ptr noundef %21, i64 noundef %22)
  call void (ptr, ptr, ...) @gtk_tree_store_set(ptr noundef %23, ptr noundef %7, i32 noundef 1, i32 noundef 0, i32 noundef -1)
  br label %28

24:                                               ; preds = %16
  %25 = load ptr, ptr %8, align 8, !tbaa !204
  %26 = call i64 @gtk_tree_store_get_type() #14
  %27 = call ptr @g_type_check_instance_cast(ptr noundef %25, i64 noundef %26)
  call void (ptr, ptr, ...) @gtk_tree_store_set(ptr noundef %27, ptr noundef %7, i32 noundef 1, i32 noundef 1, i32 noundef -1)
  br label %28

28:                                               ; preds = %24, %20
  br label %29

29:                                               ; preds = %28, %3
  call void @llvm.lifetime.start.p0(i64 8, ptr %9) #11
  store ptr null, ptr %9, align 8, !tbaa !11
  %30 = load ptr, ptr %8, align 8, !tbaa !204
  call void @gtk_tree_model_foreach(ptr noundef %30, ptr noundef @_menuitem_manage_quick_presets_traverse, ptr noundef %9)
  %31 = load ptr, ptr %9, align 8, !tbaa !11
  call void @dt_conf_set_string(ptr noundef @.str.74, ptr noundef %31)
  %32 = load ptr, ptr %9, align 8, !tbaa !11
  call void @g_free(ptr noundef %32)
  call void @llvm.lifetime.end.p0(i64 8, ptr %9) #11
  call void @llvm.lifetime.end.p0(i64 8, ptr %8) #11
  call void @llvm.lifetime.end.p0(i64 32, ptr %7) #11
  ret void
}