; Function Attrs: nounwind uwtable
define internal void @_menuitem_manage_quick_presets_toggle(ptr noundef %0, ptr noundef %1, ptr noundef %2) #0 {
  %4 = alloca %struct._GtkTreeIter, align 8
  %5 = alloca ptr, align 8
  call void @llvm.lifetime.start.p0(i64 32, ptr nonnull %4) #16
  %6 = tail call ptr @gtk_tree_view_get_model(ptr noundef %2) #16
  %7 = call i32 @gtk_tree_model_get_iter_from_string(ptr noundef %6, ptr noundef nonnull %4, ptr noundef %1) #16
  %.not = icmp eq i32 %7, 0
  br i1 %.not, label %11, label %.sink.split

.sink.split:                                      ; preds = %3
  %8 = call i32 @gtk_cell_renderer_toggle_get_active(ptr noundef %0) #16
  %.not7 = icmp eq i32 %8, 0
  %9 = tail call i64 @gtk_tree_store_get_type() #20
  %10 = call ptr @g_type_check_instance_cast(ptr noundef %6, i64 noundef %9) #16
  %. = zext i1 %.not7 to i32
  call void (ptr, ptr, ...) @gtk_tree_store_set(ptr noundef %10, ptr noundef nonnull %4, i32 noundef 1, i32 noundef %., i32 noundef -1) #16
  br label %11

11:                                               ; preds = %.sink.split, %3
  call void @llvm.lifetime.start.p0(i64 8, ptr nonnull %5) #16
  store ptr null, ptr %5, align 8, !tbaa !108
  call void @gtk_tree_model_foreach(ptr noundef %6, ptr noundef nonnull @_menuitem_manage_quick_presets_traverse, ptr noundef nonnull %5) #16
  %12 = load ptr, ptr %5, align 8, !tbaa !108
  call void @dt_conf_set_string(ptr noundef nonnull @.str.74, ptr noundef %12) #16
  %13 = load ptr, ptr %5, align 8, !tbaa !108
  call void @g_free(ptr noundef %13) #16
  call void @llvm.lifetime.end.p0(i64 8, ptr nonnull %5) #16
  call void @llvm.lifetime.end.p0(i64 32, ptr nonnull %4) #16
  ret void
}